target datalayout = "e-m:e-p270:32:32-p271:32:32-p272:64:64-i64:64-i128:128-f80:128-n8:16:32:64-S128"
target triple = "x86_64-pc-linux-gnu"

%struct.dt_bilateral_t = type { i64, i64, i64, i32, i32, i32, i32, i32, float, float, float, float, ptr, [56 x i8] }

; Function Attrs: nounwind uwtable
define internal void @blur_line_z(ptr noundef %0, i32 noundef %1, i32 noundef %2, i32 noundef %3, i32 noundef %4, i32 noundef %5, i32 noundef %6) #0 {
  %8 = alloca ptr, align 8
  %9 = alloca i32, align 4
  %10 = alloca i32, align 4
  %11 = alloca i32, align 4
  %12 = alloca i32, align 4
  %13 = alloca i32, align 4
  %14 = alloca i32, align 4
  %15 = alloca float, align 4
  %16 = alloca float, align 4
  %17 = alloca i32, align 4
  %18 = alloca i32, align 4
  %19 = alloca i64, align 8
  %20 = alloca i32, align 4
  %21 = alloca float, align 4
  %22 = alloca float, align 4
  %23 = alloca i32, align 4
  %24 = alloca float, align 4
  %25 = alloca float, align 4
  store ptr %0, ptr %8, align 8, !tbaa !69
  store i32 %1, ptr %9, align 4, !tbaa !11
  store i32 %2, ptr %10, align 4, !tbaa !11
  store i32 %3, ptr %11, align 4, !tbaa !11
  store i32 %4, ptr %12, align 4, !tbaa !11
  store i32 %5, ptr %13, align 4, !tbaa !11
  store i32 %6, ptr %14, align 4, !tbaa !11
  call void @llvm.lifetime.start.p0(i64 4, ptr %15) #9
  store float 2.500000e-01, ptr %15, align 4, !tbaa !13
  call void @llvm.lifetime.start.p0(i64 4, ptr %16) #9
  store float 1.250000e-01, ptr %16, align 4, !tbaa !13
  call void @llvm.lifetime.start.p0(i64 4, ptr %17) #9
  store i32 0, ptr %17, align 4, !tbaa !11
  br label %26

26:                                               ; preds = %197, %7
  %27 = load i32, ptr %17, align 4, !tbaa !11
  %28 = load i32, ptr %12, align 4, !tbaa !11
  %29 = icmp slt i32 %27, %28
  br i1 %29, label %31, label %30

30:                                               ; preds = %26
  store i32 2, ptr %18, align 4
  call void @llvm.lifetime.end.p0(i64 4, ptr %17) #9
  br label %200

31:                                               ; preds = %26
  call void @llvm.lifetime.start.p0(i64 8, ptr %19) #9
  %32 = load i32, ptr %17, align 4, !tbaa !11
  %33 = sext i32 %32 to i64
  %34 = load i32, ptr %9, align 4, !tbaa !11
  %35 = sext i32 %34 to i64
  %36 = mul i64 %33, %35
  store i64 %36, ptr %19, align 8, !tbaa !25
  call void @llvm.lifetime.start.p0(i64 4, ptr %20) #9
  store i32 0, ptr %20, align 4, !tbaa !11
  br label %37

37:                                               ; preds = %193, %31
  %38 = load i32, ptr %20, align 4, !tbaa !11
  %39 = load i32, ptr %13, align 4, !tbaa !11
  %40 = icmp slt i32 %38, %39
  br i1 %40, label %42, label %41

41:                                               ; preds = %37
  store i32 5, ptr %18, align 4
  call void @llvm.lifetime.end.p0(i64 4, ptr %20) #9
  br label %196

42:                                               ; preds = %37
  call void @llvm.lifetime.start.p0(i64 4, ptr %21) #9
  %43 = load ptr, ptr %8, align 8, !tbaa !69
  %44 = load i64, ptr %19, align 8, !tbaa !25
  %45 = getelementptr inbounds nuw float, ptr %43, i64 %44
  %46 = load float, ptr %45, align 4, !tbaa !13
  store float %46, ptr %21, align 4, !tbaa !13
  %47 = load ptr, ptr %8, align 8, !tbaa !69
  %48 = load i64, ptr %19, align 8, !tbaa !25
  %49 = load i32, ptr %11, align 4, !tbaa !11
  %50 = sext i32 %49 to i64
  %51 = add i64 %48, %50
  %52 = getelementptr inbounds nuw float, ptr %47, i64 %51
  %53 = load float, ptr %52, align 4, !tbaa !13
  %54 = fmul reassoc nsz arcp contract afn float 2.500000e-01, %53
  %55 = load ptr, ptr %8, align 8, !tbaa !69
  %56 = load i64, ptr %19, align 8, !tbaa !25
  %57 = load i32, ptr %11, align 4, !tbaa !11
  %58 = mul nsw i32 2, %57
  %59 = sext i32 %58 to i64
  %60 = add i64 %56, %59
  %61 = getelementptr inbounds nuw float, ptr %55, i64 %60
  %62 = load float, ptr %61, align 4, !tbaa !13
  %63 = fmul reassoc nsz arcp contract afn float 1.250000e-01, %62
  %64 = fadd reassoc nsz arcp contract afn float %54, %63
  %65 = load ptr, ptr %8, align 8, !tbaa !69
  %66 = load i64, ptr %19, align 8, !tbaa !25
  %67 = getelementptr inbounds nuw float, ptr %65, i64 %66
  store float %64, ptr %67, align 4, !tbaa !13
  %68 = load i32, ptr %11, align 4, !tbaa !11
  %69 = sext i32 %68 to i64
  %70 = load i64, ptr %19, align 8, !tbaa !25
  %71 = add i64 %70, %69
  store i64 %71, ptr %19, align 8, !tbaa !25
  call void @llvm.lifetime.start.p0(i64 4, ptr %22) #9
  %72 = load ptr, ptr %8, align 8, !tbaa !69
  %73 = load i64, ptr %19, align 8, !tbaa !25
  %74 = getelementptr inbounds nuw float, ptr %72, i64 %73
  %75 = load float, ptr %74, align 4, !tbaa !13
  store float %75, ptr %22, align 4, !tbaa !13
  %76 = load ptr, ptr %8, align 8, !tbaa !69
  %77 = load i64, ptr %19, align 8, !tbaa !25
  %78 = load i32, ptr %11, align 4, !tbaa !11
  %79 = sext i32 %78 to i64
  %80 = add i64 %77, %79
  %81 = getelementptr inbounds nuw float, ptr %76, i64 %80
  %82 = load float, ptr %81, align 4, !tbaa !13
  %83 = load float, ptr %21, align 4, !tbaa !13
  %84 = fsub reassoc nsz arcp contract afn float %82, %83
  %85 = fmul reassoc nsz arcp contract afn float 2.500000e-01, %84
  %86 = load ptr, ptr %8, align 8, !tbaa !69
  %87 = load i64, ptr %19, align 8, !tbaa !25
  %88 = load i32, ptr %11, align 4, !tbaa !11
  %89 = mul nsw i32 2, %88
  %90 = sext i32 %89 to i64
  %91 = add i64 %87, %90
  %92 = getelementptr inbounds nuw float, ptr %86, i64 %91
  %93 = load float, ptr %92, align 4, !tbaa !13
  %94 = fmul reassoc nsz arcp contract afn float 1.250000e-01, %93
  %95 = fadd reassoc nsz arcp contract afn float %85, %94
  %96 = load ptr, ptr %8, align 8, !tbaa !69
  %97 = load i64, ptr %19, align 8, !tbaa !25
  %98 = getelementptr inbounds nuw float, ptr %96, i64 %97
  store float %95, ptr %98, align 4, !tbaa !13
  %99 = load i32, ptr %11, align 4, !tbaa !11
  %100 = sext i32 %99 to i64
  %101 = load i64, ptr %19, align 8, !tbaa !25
  %102 = add i64 %101, %100
  store i64 %102, ptr %19, align 8, !tbaa !25
  call void @llvm.lifetime.start.p0(i64 4, ptr %23) #9
  store i32 2, ptr %23, align 4, !tbaa !11
  br label %103

103:                                              ; preds = %145, %42
  %104 = load i32, ptr %23, align 4, !tbaa !11
  %105 = load i32, ptr %14, align 4, !tbaa !11
  %106 = sub nsw i32 %105, 2
  %107 = icmp slt i32 %104, %106
  br i1 %107, label %109, label %108

108:                                              ; preds = %103
  store i32 8, ptr %18, align 4
  call void @llvm.lifetime.end.p0(i64 4, ptr %23) #9
  br label %148

109:                                              ; preds = %103
  call void @llvm.lifetime.start.p0(i64 4, ptr %24) #9
  %110 = load ptr, ptr %8, align 8, !tbaa !69
  %111 = load i64, ptr %19, align 8, !tbaa !25
  %112 = getelementptr inbounds nuw float, ptr %110, i64 %111
  %113 = load float, ptr %112, align 4, !tbaa !13
  store float %113, ptr %24, align 4, !tbaa !13
  %114 = load ptr, ptr %8, align 8, !tbaa !69
  %115 = load i64, ptr %19, align 8, !tbaa !25
  %116 = load i32, ptr %11, align 4, !tbaa !11
  %117 = sext i32 %116 to i64
  %118 = add i64 %115, %117
  %119 = getelementptr inbounds nuw float, ptr %114, i64 %118
  %120 = load float, ptr %119, align 4, !tbaa !13
  %121 = load float, ptr %22, align 4, !tbaa !13
  %122 = fsub reassoc nsz arcp contract afn float %120, %121
  %123 = fmul reassoc nsz arcp contract afn float 2.500000e-01, %122
  %124 = load ptr, ptr %8, align 8, !tbaa !69
  %125 = load i64, ptr %19, align 8, !tbaa !25
  %126 = load i32, ptr %11, align 4, !tbaa !11
  %127 = mul nsw i32 2, %126
  %128 = sext i32 %127 to i64
  %129 = add i64 %125, %128
  %130 = getelementptr inbounds nuw float, ptr %124, i64 %129
  %131 = load float, ptr %130, align 4, !tbaa !13
  %132 = load float, ptr %21, align 4, !tbaa !13
  %133 = fsub reassoc nsz arcp contract afn float %131, %132
  %134 = fmul reassoc nsz arcp contract afn float 1.250000e-01, %133
  %135 = fadd reassoc nsz arcp contract afn float %123, %134
  %136 = load ptr, ptr %8, align 8, !tbaa !69
  %137 = load i64, ptr %19, align 8, !tbaa !25
  %138 = getelementptr inbounds nuw float, ptr %136, i64 %137
  store float %135, ptr %138, align 4, !tbaa !13
  %139 = load i32, ptr %11, align 4, !tbaa !11
  %140 = sext i32 %139 to i64
  %141 = load i64, ptr %19, align 8, !tbaa !25
  %142 = add i64 %141, %140
  store i64 %142, ptr %19, align 8, !tbaa !25
  %143 = load float, ptr %22, align 4, !tbaa !13
  store float %143, ptr %21, align 4, !tbaa !13
  %144 = load float, ptr %24, align 4, !tbaa !13
  store float %144, ptr %22, align 4, !tbaa !13
  call void @llvm.lifetime.end.p0(i64 4, ptr %24) #9
  br label %145

145:                                              ; preds = %109
  %146 = load i32, ptr %23, align 4, !tbaa !11
  %147 = add nsw i32 %146, 1
  store i32 %147, ptr %23, align 4, !tbaa !11
  br label %103

148:                                              ; preds = %108
  call void @llvm.lifetime.start.p0(i64 4, ptr %25) #9
  %149 = load ptr, ptr %8, align 8, !tbaa !69
  %150 = load i64, ptr %19, align 8, !tbaa !25
  %151 = getelementptr inbounds nuw float, ptr %149, i64 %150
  %152 = load float, ptr %151, align 4, !tbaa !13
  store float %152, ptr %25, align 4, !tbaa !13
  %153 = load ptr, ptr %8, align 8, !tbaa !69
  %154 = load i64, ptr %19, align 8, !tbaa !25
  %155 = load i32, ptr %11, align 4, !tbaa !11
  %156 = sext i32 %155 to i64
  %157 = add i64 %154, %156
  %158 = getelementptr inbounds nuw float, ptr %153, i64 %157
  %159 = load float, ptr %158, align 4, !tbaa !13
  %160 = load float, ptr %22, align 4, !tbaa !13
  %161 = fsub reassoc nsz arcp contract afn float %159, %160
  %162 = fmul reassoc nsz arcp contract afn float 2.500000e-01, %161
  %163 = load float, ptr %21, align 4, !tbaa !13
  %164 = fmul reassoc nsz arcp contract afn float 1.250000e-01, %163
  %165 = fsub reassoc nsz arcp contract afn float %162, %164
  %166 = load ptr, ptr %8, align 8, !tbaa !69
  %167 = load i64, ptr %19, align 8, !tbaa !25
  %168 = getelementptr inbounds nuw float, ptr %166, i64 %167
  store float %165, ptr %168, align 4, !tbaa !13
  %169 = load i32, ptr %11, align 4, !tbaa !11
  %170 = sext i32 %169 to i64
  %171 = load i64, ptr %19, align 8, !tbaa !25
  %172 = add i64 %171, %170
  store i64 %172, ptr %19, align 8, !tbaa !25
  %173 = load float, ptr %25, align 4, !tbaa !13
  %174 = fmul reassoc nsz arcp contract afn float -2.500000e-01, %173
  %175 = load float, ptr %22, align 4, !tbaa !13
  %176 = fmul reassoc nsz arcp contract afn float 1.250000e-01, %175
  %177 = fsub reassoc nsz arcp contract afn float %174, %176
  %178 = load ptr, ptr %8, align 8, !tbaa !69
  %179 = load i64, ptr %19, align 8, !tbaa !25
  %180 = getelementptr inbounds nuw float, ptr %178, i64 %179
  store float %177, ptr %180, align 4, !tbaa !13
  %181 = load i32, ptr %11, align 4, !tbaa !11
  %182 = sext i32 %181 to i64
  %183 = load i64, ptr %19, align 8, !tbaa !25
  %184 = add i64 %183, %182
  store i64 %184, ptr %19, align 8, !tbaa !25
  %185 = load i32, ptr %10, align 4, !tbaa !11
  %186 = load i32, ptr %11, align 4, !tbaa !11
  %187 = load i32, ptr %14, align 4, !tbaa !11
  %188 = mul nsw i32 %186, %187
  %189 = sub nsw i32 %185, %188
  %190 = sext i32 %189 to i64
  %191 = load i64, ptr %19, align 8, !tbaa !25
  %192 = add i64 %191, %190
  store i64 %192, ptr %19, align 8, !tbaa !25
  call void @llvm.lifetime.end.p0(i64 4, ptr %25) #9
  call void @llvm.lifetime.end.p0(i64 4, ptr %22) #9
  call void @llvm.lifetime.end.p0(i64 4, ptr %21) #9
  br label %193

193:                                              ; preds = %148
  %194 = load i32, ptr %20, align 4, !tbaa !11
  %195 = add nsw i32 %194, 1
  store i32 %195, ptr %20, align 4, !tbaa !11
  br label %37

196:                                              ; preds = %41
  call void @llvm.lifetime.end.p0(i64 8, ptr %19) #9
  br label %197

197:                                              ; preds = %196
  %198 = load i32, ptr %17, align 4, !tbaa !11
  %199 = add nsw i32 %198, 1
  store i32 %199, ptr %17, align 4, !tbaa !11
  br label %26

200:                                              ; preds = %30
  call void @llvm.lifetime.end.p0(i64 4, ptr %16) #9
  call void @llvm.lifetime.end.p0(i64 4, ptr %15) #9
  ret void
}

; Function Attrs: nounwind uwtable
define void @dt_bilateral_blur(ptr noundef %0) #0 {
  %2 = alloca ptr, align 8
  %3 = alloca i32, align 4
  %4 = alloca i32, align 4
  %5 = alloca i32, align 4
  store ptr %0, ptr %2, align 8, !tbaa !6
  %6 = load ptr, ptr %2, align 8, !tbaa !6
  %7 = icmp ne ptr %6, null
  br i1 %7, label %8, label %13

8:                                                ; preds = %1
  %9 = load ptr, ptr %2, align 8, !tbaa !6
  %10 = getelementptr inbounds nuw %struct.dt_bilateral_t, ptr %9, i32 0, i32 12
  %11 = load ptr, ptr %10, align 64, !tbaa !31
  %12 = icmp ne ptr %11, null
  br i1 %12, label %14, label %13

13:                                               ; preds = %8, %1
  br label %78

14:                                               ; preds = %8
  call void @llvm.lifetime.start.p0(i64 4, ptr %3) #9
  %15 = load ptr, ptr %2, align 8, !tbaa !6
  %16 = getelementptr inbounds nuw %struct.dt_bilateral_t, ptr %15, i32 0, i32 2
  %17 = load i64, ptr %16, align 16, !tbaa !24
  %18 = trunc i64 %17 to i32
  store i32 %18, ptr %3, align 4, !tbaa !11
  call void @llvm.lifetime.start.p0(i64 4, ptr %4) #9
  %19 = load ptr, ptr %2, align 8, !tbaa !6
  %20 = getelementptr inbounds nuw %struct.dt_bilateral_t, ptr %19, i32 0, i32 0
  %21 = load i64, ptr %20, align 64, !tbaa !22
  %22 = load ptr, ptr %2, align 8, !tbaa !6
  %23 = getelementptr inbounds nuw %struct.dt_bilateral_t, ptr %22, i32 0, i32 2
  %24 = load i64, ptr %23, align 16, !tbaa !24
  %25 = mul i64 %21, %24
  %26 = trunc i64 %25 to i32
  store i32 %26, ptr %4, align 4, !tbaa !11
  call void @llvm.lifetime.start.p0(i64 4, ptr %5) #9
  store i32 1, ptr %5, align 4, !tbaa !11
  %27 = load ptr, ptr %2, align 8, !tbaa !6
  %28 = getelementptr inbounds nuw %struct.dt_bilateral_t, ptr %27, i32 0, i32 12
  %29 = load ptr, ptr %28, align 64, !tbaa !31
  %30 = load i32, ptr %4, align 4, !tbaa !11
  %31 = load i32, ptr %3, align 4, !tbaa !11
  %32 = load ptr, ptr %2, align 8, !tbaa !6
  %33 = getelementptr inbounds nuw %struct.dt_bilateral_t, ptr %32, i32 0, i32 2
  %34 = load i64, ptr %33, align 16, !tbaa !24
  %35 = trunc i64 %34 to i32
  %36 = load ptr, ptr %2, align 8, !tbaa !6
  %37 = getelementptr inbounds nuw %struct.dt_bilateral_t, ptr %36, i32 0, i32 1
  %38 = load i64, ptr %37, align 8, !tbaa !23
  %39 = trunc i64 %38 to i32
  %40 = load ptr, ptr %2, align 8, !tbaa !6
  %41 = getelementptr inbounds nuw %struct.dt_bilateral_t, ptr %40, i32 0, i32 0
  %42 = load i64, ptr %41, align 64, !tbaa !22
  %43 = trunc i64 %42 to i32
  call void @blur_line(ptr noundef %29, i32 noundef 1, i32 noundef %30, i32 noundef %31, i32 noundef %35, i32 noundef %39, i32 noundef %43)
  %44 = load ptr, ptr %2, align 8, !tbaa !6
  %45 = getelementptr inbounds nuw %struct.dt_bilateral_t, ptr %44, i32 0, i32 12
  %46 = load ptr, ptr %45, align 64, !tbaa !31
  %47 = load i32, ptr %3, align 4, !tbaa !11
  %48 = load i32, ptr %4, align 4, !tbaa !11
  %49 = load ptr, ptr %2, align 8, !tbaa !6
  %50 = getelementptr inbounds nuw %struct.dt_bilateral_t, ptr %49, i32 0, i32 2
  %51 = load i64, ptr %50, align 16, !tbaa !24
  %52 = trunc i64 %51 to i32
  %53 = load ptr, ptr %2, align 8, !tbaa !6
  %54 = getelementptr inbounds nuw %struct.dt_bilateral_t, ptr %53, i32 0, i32 0
  %55 = load i64, ptr %54, align 64, !tbaa !22
  %56 = trunc i64 %55 to i32
  %57 = load ptr, ptr %2, align 8, !tbaa !6
  %58 = getelementptr inbounds nuw %struct.dt_bilateral_t, ptr %57, i32 0, i32 1
  %59 = load i64, ptr %58, align 8, !tbaa !23
  %60 = trunc i64 %59 to i32
  call void @blur_line(ptr noundef %46, i32 noundef 1, i32 noundef %47, i32 noundef %48, i32 noundef %52, i32 noundef %56, i32 noundef %60)
  %61 = load ptr, ptr %2, align 8, !tbaa !6
  %62 = getelementptr inbounds nuw %struct.dt_bilateral_t, ptr %61, i32 0, i32 12
  %63 = load ptr, ptr %62, align 64, !tbaa !31
  %64 = load i32, ptr %3, align 4, !tbaa !11
  %65 = load i32, ptr %4, align 4, !tbaa !11
  %66 = load ptr, ptr %2, align 8, !tbaa !6
  %67 = getelementptr inbounds nuw %struct.dt_bilateral_t, ptr %66, i32 0, i32 0
  %68 = load i64, ptr %67, align 64, !tbaa !22
  %69 = trunc i64 %68 to i32
  %70 = load ptr, ptr %2, align 8, !tbaa !6
  %71 = getelementptr inbounds nuw %struct.dt_bilateral_t, ptr %70, i32 0, i32 1
  %72 = load i64, ptr %71, align 8, !tbaa !23
  %73 = trunc i64 %72 to i32
  %74 = load ptr, ptr %2, align 8, !tbaa !6
  %75 = getelementptr inbounds nuw %struct.dt_bilateral_t, ptr %74, i32 0, i32 2
  %76 = load i64, ptr %75, align 16, !tbaa !24
  %77 = trunc i64 %76 to i32
  call void @blur_line_z(ptr noundef %63, i32 noundef %64, i32 noundef %65, i32 noundef 1, i32 noundef %69, i32 noundef %73, i32 noundef %77)
  call void @llvm.lifetime.end.p0(i64 4, ptr %5) #9
  call void @llvm.lifetime.end.p0(i64 4, ptr %4) #9
  call void @llvm.lifetime.end.p0(i64 4, ptr %3) #9
  br label %78

78:                                               ; preds = %14, %13
  ret void
}