; Function Attrs: nofree norecurse nosync nounwind memory(readwrite, inaccessiblemem: none) uwtable
define void @dt_bilateral_blur(ptr noundef readonly %0) local_unnamed_addr #8 {
  %.not = icmp eq ptr %0, null
  br i1 %.not, label %blur_line_z.exit, label %2

2:                                                ; preds = %1
  %3 = getelementptr inbounds nuw i8, ptr %0, i64 64
  %4 = load ptr, ptr %3, align 64, !tbaa !26
  %.not23 = icmp eq ptr %4, null
  br i1 %.not23, label %blur_line_z.exit, label %5

5:                                                ; preds = %2
  %6 = getelementptr inbounds nuw i8, ptr %0, i64 16
  %7 = load i64, ptr %6, align 16, !tbaa !20
  %8 = trunc i64 %7 to i32
  %9 = load i64, ptr %0, align 64, !tbaa !18
  %10 = mul i64 %9, %7
  %11 = trunc i64 %10 to i32
  %12 = getelementptr inbounds nuw i8, ptr %0, i64 8
  %13 = load i64, ptr %12, align 8, !tbaa !19
  %14 = trunc i64 %13 to i32
  %15 = trunc i64 %9 to i32
  tail call fastcc void @blur_line(ptr noundef nonnull %4, i32 noundef %11, i32 noundef %8, i32 noundef %8, i32 noundef %14, i32 noundef %15)
  %16 = load ptr, ptr %3, align 64, !tbaa !26
  %17 = load i64, ptr %6, align 16, !tbaa !20
  %18 = trunc i64 %17 to i32
  %19 = load i64, ptr %0, align 64, !tbaa !18
  %20 = trunc i64 %19 to i32
  %21 = load i64, ptr %12, align 8, !tbaa !19
  %22 = trunc i64 %21 to i32
  tail call fastcc void @blur_line(ptr noundef %16, i32 noundef %8, i32 noundef %11, i32 noundef %18, i32 noundef %20, i32 noundef %22)
  %23 = load ptr, ptr %3, align 64, !tbaa !26
  %24 = load i64, ptr %0, align 64, !tbaa !18
  %25 = trunc i64 %24 to i32
  %26 = load i64, ptr %12, align 8, !tbaa !19
  %27 = trunc i64 %26 to i32
  %28 = load i64, ptr %6, align 16, !tbaa !20
  %29 = trunc i64 %28 to i32
  %30 = icmp sgt i32 %25, 0
  br i1 %30, label %.lr.ph.i, label %blur_line_z.exit

.lr.ph.i:                                         ; preds = %5
  %sext = shl i64 %7, 32
  %31 = ashr exact i64 %sext, 32
  %32 = icmp sgt i32 %27, 0
  %33 = sub i64 %10, %28
  %sext24 = shl i64 %33, 32
  %34 = ashr exact i64 %sext24, 32
  %35 = add nsw i64 %34, 2
  br i1 %32, label %.lr.ph.split.us.i, label %blur_line_z.exit

.lr.ph.split.us.i:                                ; preds = %.lr.ph.i
  %36 = icmp sgt i32 %29, 4
  %wide.trip.count103.i = and i64 %24, 2147483647
  br i1 %36, label %.lr.ph86.us.us.preheader.i, label %.lr.ph86.us.preheader.i

.lr.ph86.us.preheader.i:                          ; preds = %.lr.ph.split.us.i
  %invariant.op.i = add nsw i64 %34, 4
  br label %.lr.ph86.us.i

.lr.ph86.us.us.preheader.i:                       ; preds = %.lr.ph.split.us.i
  %37 = add nsw i32 %29, -3
  br label %.lr.ph86.us.us.i

.lr.ph86.us.us.i:                                 ; preds = %._crit_edge87.split.us.us.us.i, %.lr.ph86.us.us.preheader.i
  %indvars.iv100.i = phi i64 [ 0, %.lr.ph86.us.us.preheader.i ], [ %indvars.iv.next101.i, %._crit_edge87.split.us.us.us.i ]
  %38 = mul nsw i64 %indvars.iv100.i, %31
  br label %.lr.ph.us.us.us.i

.lr.ph.us.us.us.i:                                ; preds = %._crit_edge.us.us.us.i, %.lr.ph86.us.us.i
  %.07584.us.us.us.i = phi i32 [ 0, %.lr.ph86.us.us.i ], [ %79, %._crit_edge.us.us.us.i ]
  %.07683.us.us.us.i = phi i64 [ %38, %.lr.ph86.us.us.i ], [ %78, %._crit_edge.us.us.us.i ]
  %39 = getelementptr inbounds nuw float, ptr %23, i64 %.07683.us.us.us.i
  %40 = load float, ptr %39, align 4, !tbaa !65
  %41 = getelementptr i8, ptr %39, i64 4
  %42 = load float, ptr %41, align 4, !tbaa !65
  %43 = fmul reassoc nsz arcp contract afn float %42, 2.500000e-01
  %44 = getelementptr i8, ptr %39, i64 8
  %45 = load float, ptr %44, align 4, !tbaa !65
  %46 = fmul reassoc nsz arcp contract afn float %45, 1.250000e-01
  %47 = fadd reassoc nsz arcp contract afn float %46, %43
  store float %47, ptr %39, align 4, !tbaa !65
  %48 = add i64 %.07683.us.us.us.i, 2
  %49 = fsub reassoc nsz arcp contract afn float %45, %40
  %50 = fmul reassoc nsz arcp contract afn float %49, 2.500000e-01
  %51 = getelementptr i8, ptr %39, i64 12
  %52 = load float, ptr %51, align 4, !tbaa !65
  %53 = fmul reassoc nsz arcp contract afn float %52, 1.250000e-01
  %54 = fadd reassoc nsz arcp contract afn float %53, %50
  store float %54, ptr %41, align 4, !tbaa !65
  br label %55

55:                                               ; preds = %55, %.lr.ph.us.us.us.i
  %56 = phi float [ %45, %.lr.ph.us.us.us.i ], [ %60, %55 ]
  %.07280.us.us.us.i = phi i32 [ 2, %.lr.ph.us.us.us.i ], [ %68, %55 ]
  %.07379.us.us.us.i = phi float [ %42, %.lr.ph.us.us.us.i ], [ %56, %55 ]
  %.07478.us.us.us.i = phi float [ %40, %.lr.ph.us.us.us.i ], [ %.07379.us.us.us.i, %55 ]
  %.177.us.us.us.i = phi i64 [ %48, %.lr.ph.us.us.us.i ], [ %58, %55 ]
  %57 = getelementptr inbounds nuw float, ptr %23, i64 %.177.us.us.us.i
  %58 = add i64 %.177.us.us.us.i, 1
  %59 = getelementptr inbounds nuw float, ptr %23, i64 %58
  %60 = load float, ptr %59, align 4, !tbaa !65
  %61 = fsub reassoc nsz arcp contract afn float %60, %.07379.us.us.us.i
  %62 = fmul reassoc nsz arcp contract afn float %61, 2.500000e-01
  %63 = getelementptr i8, ptr %57, i64 8
  %64 = load float, ptr %63, align 4, !tbaa !65
  %65 = fsub reassoc nsz arcp contract afn float %64, %.07478.us.us.us.i
  %66 = fmul reassoc nsz arcp contract afn float %65, 1.250000e-01
  %67 = fadd reassoc nsz arcp contract afn float %66, %62
  store float %67, ptr %57, align 4, !tbaa !65
  %68 = add nuw nsw i32 %.07280.us.us.us.i, 1
  %exitcond98.not.i = icmp eq i32 %.07280.us.us.us.i, %37
  br i1 %exitcond98.not.i, label %._crit_edge.us.us.us.i, label %55

._crit_edge.us.us.us.i:                           ; preds = %55
  %69 = getelementptr inbounds nuw float, ptr %23, i64 %58
  %70 = getelementptr i8, ptr %69, i64 4
  %71 = fsub reassoc nsz arcp contract afn float %64, %56
  %72 = fmul reassoc nsz arcp contract afn float %71, 2.500000e-01
  %73 = fmul reassoc nsz arcp contract afn float %.07379.us.us.us.i, 1.250000e-01
  %74 = fsub reassoc nsz arcp contract afn float %72, %73
  store float %74, ptr %69, align 4, !tbaa !65
  %75 = fmul reassoc nsz arcp contract afn float %60, -2.500000e-01
  %76 = fmul reassoc nsz arcp contract afn float %56, 1.250000e-01
  %77 = fsub reassoc nsz arcp contract afn float %75, %76
  store float %77, ptr %70, align 4, !tbaa !65
  %78 = add i64 %35, %58
  %79 = add nuw nsw i32 %.07584.us.us.us.i, 1
  %exitcond99.not.i = icmp eq i32 %79, %27
  br i1 %exitcond99.not.i, label %._crit_edge87.split.us.us.us.i, label %.lr.ph.us.us.us.i

._crit_edge87.split.us.us.us.i:                   ; preds = %._crit_edge.us.us.us.i
  %indvars.iv.next101.i = add nuw nsw i64 %indvars.iv100.i, 1
  %exitcond104.not.i = icmp eq i64 %indvars.iv.next101.i, %wide.trip.count103.i
  br i1 %exitcond104.not.i, label %blur_line_z.exit, label %.lr.ph86.us.us.i

.lr.ph86.us.i:                                    ; preds = %._crit_edge87.split.us91.i, %.lr.ph86.us.preheader.i
  %indvars.iv.i = phi i64 [ 0, %.lr.ph86.us.preheader.i ], [ %indvars.iv.next.i, %._crit_edge87.split.us91.i ]
  %80 = mul nsw i64 %indvars.iv.i, %31
  br label %81

81:                                               ; preds = %81, %.lr.ph86.us.i
  %.07584.us89.i = phi i32 [ 0, %.lr.ph86.us.i ], [ %104, %81 ]
  %.07683.us90.i = phi i64 [ %80, %.lr.ph86.us.i ], [ %.reass.i, %81 ]
  %82 = getelementptr inbounds nuw float, ptr %23, i64 %.07683.us90.i
  %83 = load float, ptr %82, align 4, !tbaa !65
  %84 = getelementptr i8, ptr %82, i64 4
  %85 = load float, ptr %84, align 4, !tbaa !65
  %86 = fmul reassoc nsz arcp contract afn float %85, 2.500000e-01
  %87 = getelementptr i8, ptr %82, i64 8
  %88 = load float, ptr %87, align 4, !tbaa !65
  %89 = fmul reassoc nsz arcp contract afn float %88, 1.250000e-01
  %90 = fadd reassoc nsz arcp contract afn float %89, %86
  store float %90, ptr %82, align 4, !tbaa !65
  %91 = fsub reassoc nsz arcp contract afn float %88, %83
  %92 = fmul reassoc nsz arcp contract afn float %91, 2.500000e-01
  %93 = getelementptr i8, ptr %82, i64 12
  %94 = load float, ptr %93, align 4, !tbaa !65
  %95 = fmul reassoc nsz arcp contract afn float %94, 1.250000e-01
  %96 = fadd reassoc nsz arcp contract afn float %95, %92
  store float %96, ptr %84, align 4, !tbaa !65
  %97 = fsub reassoc nsz arcp contract afn float %94, %85
  %98 = fmul reassoc nsz arcp contract afn float %97, 2.500000e-01
  %99 = fmul reassoc nsz arcp contract afn float %83, 1.250000e-01
  %100 = fsub reassoc nsz arcp contract afn float %98, %99
  store float %100, ptr %87, align 4, !tbaa !65
  %101 = fmul reassoc nsz arcp contract afn float %88, -2.500000e-01
  %102 = fmul reassoc nsz arcp contract afn float %85, 1.250000e-01
  %103 = fsub reassoc nsz arcp contract afn float %101, %102
  store float %103, ptr %93, align 4, !tbaa !65
  %.reass.i = add i64 %invariant.op.i, %.07683.us90.i
  %104 = add nuw nsw i32 %.07584.us89.i, 1
  %exitcond.not.i = icmp eq i32 %104, %27
  br i1 %exitcond.not.i, label %._crit_edge87.split.us91.i, label %81

._crit_edge87.split.us91.i:                       ; preds = %81
  %indvars.iv.next.i = add nuw nsw i64 %indvars.iv.i, 1
  %exitcond97.not.i = icmp eq i64 %indvars.iv.next.i, %wide.trip.count103.i
  br i1 %exitcond97.not.i, label %blur_line_z.exit, label %.lr.ph86.us.i

blur_line_z.exit:                                 ; preds = %._crit_edge87.split.us91.i, %._crit_edge87.split.us.us.us.i, %.lr.ph.i, %5, %1, %2
  ret void
}